Certificate:
    Data:
        Version: 3 (0x2)
        Serial Number: 1 (0x1)
    Signature Algorithm: sha1WithRSAEncryption
        Issuer: C=ID, ST=Albay, L=Legazpi, O=0123456, OU=0123456, CN=0123456/name=server/emailAddress=rdbtx123@gmail.com
        Validity
            Not Before: Aug 23 07:34:49 2018 GMT
            Not After : Aug 20 07:34:49 2028 GMT
        Subject: C=ID, ST=Albay, L=Legazpi, O=0123456, OU=0123456, CN=0123456/name=server/emailAddress=rdbtx123@gmail.com
        Subject Public Key Info:
            Public Key Algorithm: rsaEncryption
                Public-Key: (2048 bit)
                Modulus:
                    00:dd:20:81:f3:a3:5e:b4:1b:d8:b1:30:fc:ed:37:
                    c9:1f:96:5f:b8:0c:86:d6:ee:21:36:84:88:fc:b4:
                    c0:37:34:48:b6:19:e6:2e:42:c8:88:fc:ab:3c:e1:
                    5e:15:ca:af:a5:3c:79:ed:e1:7d:63:eb:b8:c0:b1:
                    d6:d4:99:4f:f1:be:2c:c7:0c:54:f1:aa:be:3c:0a:
                    65:3a:d0:20:9a:2c:f2:b6:72:31:ba:51:1f:e4:88:
                    38:93:89:86:85:bf:3d:0e:7e:ad:25:1f:91:dc:a1:
                    41:86:1f:49:36:60:79:da:c2:57:80:17:71:55:95:
                    02:3e:59:78:17:c2:5c:56:c2:d0:ad:2b:45:b8:b7:
                    b5:55:70:fb:f1:59:6a:d7:f7:da:74:86:6f:cb:12:
                    58:68:a5:22:4e:f8:01:13:a8:51:3c:72:09:80:14:
                    a9:7c:fe:70:ce:51:e4:03:d7:83:3c:71:af:75:e2:
                    94:a8:ca:4d:f9:c2:93:9e:78:44:3c:c2:cf:86:71:
                    cf:e2:23:5c:fb:73:07:07:21:da:a4:a9:b1:d1:a0:
                    80:b4:95:8b:35:b7:d4:e2:15:cb:81:24:cf:d2:4f:
                    0b:21:b2:3d:fe:6f:5d:62:87:84:73:5d:01:b2:1a:
                    fe:ad:43:a1:d8:c5:94:f1:48:3d:21:41:ae:c4:8d:
                    d9:07
                Exponent: 65537 (0x10001)
        X509v3 extensions:
            X509v3 Basic Constraints: 
                CA:FALSE
            Netscape Cert Type: 
                SSL Server
            Netscape Comment: 
                Easy-RSA Generated Server Certificate
            X509v3 Subject Key Identifier: 
                61:38:02:FD:83:0F:35:D1:C3:91:65:E2:47:23:BB:FF:54:85:19:5B
            X509v3 Authority Key Identifier: 
                keyid:D8:CC:24:A5:A0:D0:38:FA:F7:97:DD:21:04:F9:BE:DC:23:91:5A:0F
                DirName:/C=ID/ST=Albay/L=Legazpi/O=0123456/OU=0123456/CN=0123456/name=server/emailAddress=rdbtx123@gmail.com
                serial:99:A8:5C:18:5C:7E:A6:A8

            X509v3 Extended Key Usage: 
                TLS Web Server Authentication
            X509v3 Key Usage: 
                Digital Signature, Key Encipherment
    Signature Algorithm: sha1WithRSAEncryption
         55:16:ec:49:fb:4d:99:bc:77:0e:a3:e5:6d:4a:53:0b:f1:e1:
         ff:43:1f:2d:e3:6e:5b:29:41:de:0d:05:33:f7:be:e9:e5:a5:
         e1:3f:fe:c2:9c:1c:e0:48:4e:a8:b9:5a:e4:36:98:2a:8c:49:
         45:47:3a:83:df:39:ef:b7:85:cf:16:39:39:c3:38:a2:ad:e2:
         f8:81:ad:40:2c:43:5a:7c:7c:b8:9c:82:4a:35:d8:5a:72:63:
         18:09:76:7d:74:8a:f0:8c:2a:9a:81:3c:20:cb:e6:ca:50:3d:
         1b:13:4d:24:69:15:3d:be:e4:c5:90:37:41:8d:d4:8f:81:8f:
         28:77:12:d8:7e:94:df:2d:7a:5b:91:d2:f0:9e:84:63:55:64:
         ac:b3:99:e6:47:4c:b2:29:69:f1:e4:2e:e5:0f:d0:59:7b:8d:
         59:9d:80:e6:7f:8a:6c:5a:3c:5f:6e:4a:6d:e1:92:5d:ad:b5:
         07:52:6e:eb:f9:77:b1:8c:db:92:f4:41:f0:84:0e:09:68:08:
         dc:aa:ad:bc:db:25:8f:9b:f7:db:9a:55:3e:65:43:4f:e0:e9:
         49:b7:d1:3a:b9:de:75:a0:11:d0:99:05:4e:1f:59:ff:a0:18:
         e4:1d:1f:95:fc:ab:d6:5f:be:ba:e1:9f:57:9e:06:77:41:c1:
         51:8b:74:8d
-----BEGIN CERTIFICATE-----
MIIFGzCCBAOgAwIBAgIBATANBgkqhkiG9w0BAQUFADCBmTELMAkGA1UEBhMCSUQx
DjAMBgNVBAgTBUFsYmF5MRAwDgYDVQQHEwdMZWdhenBpMRAwDgYDVQQKEwcwMTIz
NDU2MRAwDgYDVQQLEwcwMTIzNDU2MRAwDgYDVQQDEwcwMTIzNDU2MQ8wDQYDVQQp
EwZzZXJ2ZXIxITAfBgkqhkiG9w0BCQEWEnJkYnR4MTIzQGdtYWlsLmNvbTAeFw0x
ODA4MjMwNzM0NDlaFw0yODA4MjAwNzM0NDlaMIGZMQswCQYDVQQGEwJJRDEOMAwG
A1UECBMFQWxiYXkxEDAOBgNVBAcTB0xlZ2F6cGkxEDAOBgNVBAoTBzAxMjM0NTYx
EDAOBgNVBAsTBzAxMjM0NTYxEDAOBgNVBAMTBzAxMjM0NTYxDzANBgNVBCkTBnNl
cnZlcjEhMB8GCSqGSIb3DQEJARYScmRidHgxMjNAZ21haWwuY29tMIIBIjANBgkq
hkiG9w0BAQEFAAOCAQ8AMIIBCgKCAQEA3SCB86NetBvYsTD87TfJH5ZfuAyG1u4h
NoSI/LTANzRIthnmLkLIiPyrPOFeFcqvpTx57eF9Y+u4wLHW1JlP8b4sxwxU8aq+
PAplOtAgmizytnIxulEf5Ig4k4mGhb89Dn6tJR+R3KFBhh9JNmB52sJXgBdxVZUC
Pll4F8JcVsLQrStFuLe1VXD78Vlq1/fadIZvyxJYaKUiTvgBE6hRPHIJgBSpfP5w
zlHkA9eDPHGvdeKUqMpN+cKTnnhEPMLPhnHP4iNc+3MHByHapKmx0aCAtJWLNbfU
4hXLgSTP0k8LIbI9/m9dYoeEc10Bshr+rUOh2MWU8Ug9IUGuxI3ZBwIDAQABo4IB
ajCCAWYwCQYDVR0TBAIwADARBglghkgBhvhCAQEEBAMCBkAwNAYJYIZIAYb4QgEN
BCcWJUVhc3ktUlNBIEdlbmVyYXRlZCBTZXJ2ZXIgQ2VydGlmaWNhdGUwHQYDVR0O
BBYEFGE4Av2DDzXRw5Fl4kcju/9UhRlbMIHOBgNVHSMEgcYwgcOAFNjMJKWg0Dj6
95fdIQT5vtwjkVoPoYGfpIGcMIGZMQswCQYDVQQGEwJJRDEOMAwGA1UECBMFQWxi
YXkxEDAOBgNVBAcTB0xlZ2F6cGkxEDAOBgNVBAoTBzAxMjM0NTYxEDAOBgNVBAsT
BzAxMjM0NTYxEDAOBgNVBAMTBzAxMjM0NTYxDzANBgNVBCkTBnNlcnZlcjEhMB8G
CSqGSIb3DQEJARYScmRidHgxMjNAZ21haWwuY29tggkAmahcGFx+pqgwEwYDVR0l
BAwwCgYIKwYBBQUHAwEwCwYDVR0PBAQDAgWgMA0GCSqGSIb3DQEBBQUAA4IBAQBV
FuxJ+02ZvHcOo+VtSlML8eH/Qx8t425bKUHeDQUz977p5aXhP/7CnBzgSE6ouVrk
NpgqjElFRzqD3znvt4XPFjk5wziireL4ga1ALENafHy4nIJKNdhacmMYCXZ9dIrw
jCqagTwgy+bKUD0bE00kaRU9vuTFkDdBjdSPgY8odxLYfpTfLXpbkdLwnoRjVWSs
s5nmR0yyKWnx5C7lD9BZe41ZnYDmf4psWjxfbkpt4ZJdrbUHUm7r+XexjNuS9EHw
hA4JaAjcqq282yWPm/fbmlU+ZUNP4OlJt9E6ud51oBHQmQVOH1n/oBjkHR+V/KvW
X7664Z9XngZ3QcFRi3SN
-----END CERTIFICATE-----